target datalayout = "e-m:e-p270:32:32-p271:32:32-p272:64:64-i64:64-i128:128-f80:128-n8:16:32:64-S128"
target triple = "x86_64-pc-linux-gnu"

%struct.mi_page_s = type { i8, i8, i16, i16, %union.mi_page_flags_s, i8, ptr, ptr, i16, i8, i8, i64, ptr, i64, i64, ptr, ptr }
%union.mi_page_flags_s = type { i8 }
%struct.mi_heap_s = type { ptr, ptr, i64, i32, i64, [2 x i64], %struct.mi_random_cxt_s, i64, i64, i64, ptr, i8, i8, [129 x ptr], [75 x %struct.mi_page_queue_s] }
%struct.mi_random_cxt_s = type { [16 x i32], [16 x i32], i32, i8 }
%struct.mi_page_queue_s = type { ptr, ptr, i64 }

; Function Attrs: inlinehint nounwind uwtable
define internal i64 @_mi_wsize_from_size(i64 noundef %0) #2 {
  %2 = alloca i64, align 8
  store i64 %0, ptr %2, align 8, !tbaa !8
  %3 = load i64, ptr %2, align 8, !tbaa !8
  %4 = add i64 %3, 8
  %5 = sub i64 %4, 1
  %6 = udiv i64 %5, 8
  ret i64 %6
}

; Function Attrs: inlinehint nounwind uwtable
define internal ptr @_mi_heap_get_free_small_page(ptr noundef %0, i64 noundef %1) #2 {
  %3 = alloca ptr, align 8
  %4 = alloca i64, align 8
  %5 = alloca i64, align 8
  store ptr %0, ptr %3, align 8, !tbaa !3
  store i64 %1, ptr %4, align 8, !tbaa !8
  call void @llvm.lifetime.start.p0(i64 8, ptr %5) #11
  %6 = load i64, ptr %4, align 8, !tbaa !8
  %7 = call i64 @_mi_wsize_from_size(i64 noundef %6) #10
  store i64 %7, ptr %5, align 8, !tbaa !8
  %8 = load ptr, ptr %3, align 8, !tbaa !3
  %9 = getelementptr inbounds nuw %struct.mi_heap_s, ptr %8, i32 0, i32 13
  %10 = load i64, ptr %5, align 8, !tbaa !8
  %11 = getelementptr inbounds nuw [129 x ptr], ptr %9, i64 0, i64 %10
  %12 = load ptr, ptr %11, align 8, !tbaa !12
  call void @llvm.lifetime.end.p0(i64 8, ptr %5) #11
  ret ptr %12
}

; Function Attrs: inlinehint nounwind uwtable
define internal zeroext i1 @_mi_is_power_of_two(i64 noundef %0) #2 {
  %2 = alloca i64, align 8
  store i64 %0, ptr %2, align 8, !tbaa !8
  %3 = load i64, ptr %2, align 8, !tbaa !8
  %4 = load i64, ptr %2, align 8, !tbaa !8
  %5 = sub i64 %4, 1
  %6 = and i64 %3, %5
  %7 = icmp eq i64 %6, 0
  ret i1 %7
}

; Function Attrs: nounwind uwtable
define internal ptr @mi_heap_malloc_zero_aligned_at(ptr noundef %0, i64 noundef %1, i64 noundef %2, i64 noundef %3, i1 noundef zeroext %4) #0 {
  %6 = alloca ptr, align 8
  %7 = alloca ptr, align 8
  %8 = alloca i64, align 8
  %9 = alloca i64, align 8
  %10 = alloca i64, align 8
  %11 = alloca i8, align 1
  %12 = alloca i64, align 8
  %13 = alloca i64, align 8
  %14 = alloca ptr, align 8
  %15 = alloca i8, align 1
  %16 = alloca ptr, align 8
  %17 = alloca i32, align 4
  store ptr %0, ptr %7, align 8, !tbaa !3
  store i64 %1, ptr %8, align 8, !tbaa !8
  store i64 %2, ptr %9, align 8, !tbaa !8
  store i64 %3, ptr %10, align 8, !tbaa !8
  %18 = zext i1 %4 to i8
  store i8 %18, ptr %11, align 1, !tbaa !10
  %19 = load i64, ptr %9, align 8, !tbaa !8
  %20 = icmp eq i64 %19, 0
  br i1 %20, label %25, label %21

21:                                               ; preds = %5
  %22 = load i64, ptr %9, align 8, !tbaa !8
  %23 = call zeroext i1 @_mi_is_power_of_two(i64 noundef %22) #10
  %24 = xor i1 %23, true
  br label %25

25:                                               ; preds = %21, %5
  %26 = phi i1 [ true, %5 ], [ %24, %21 ]
  %27 = xor i1 %26, true
  %28 = xor i1 %27, true
  %29 = zext i1 %28 to i32
  %30 = sext i32 %29 to i64
  %31 = call i64 @llvm.expect.i64(i64 %30, i64 0)
  %32 = icmp ne i64 %31, 0
  br i1 %32, label %33, label %34

33:                                               ; preds = %25
  store ptr null, ptr %6, align 8
  br label %122

34:                                               ; preds = %25
  %35 = load i64, ptr %8, align 8, !tbaa !8
  %36 = icmp ule i64 %35, 1024
  br i1 %36, label %37, label %41

37:                                               ; preds = %34
  %38 = load i64, ptr %9, align 8, !tbaa !8
  %39 = load i64, ptr %8, align 8, !tbaa !8
  %40 = icmp ule i64 %38, %39
  br label %41

41:                                               ; preds = %37, %34
  %42 = phi i1 [ false, %34 ], [ %40, %37 ]
  %43 = xor i1 %42, true
  %44 = xor i1 %43, true
  %45 = zext i1 %44 to i32
  %46 = sext i32 %45 to i64
  %47 = call i64 @llvm.expect.i64(i64 %46, i64 1)
  %48 = icmp ne i64 %47, 0
  br i1 %48, label %49, label %114

49:                                               ; preds = %41
  call void @llvm.lifetime.start.p0(i64 8, ptr %12) #11
  %50 = load i64, ptr %9, align 8, !tbaa !8
  %51 = sub i64 %50, 1
  store i64 %51, ptr %12, align 8, !tbaa !8
  call void @llvm.lifetime.start.p0(i64 8, ptr %13) #11
  %52 = load i64, ptr %8, align 8, !tbaa !8
  %53 = add i64 %52, 0
  store i64 %53, ptr %13, align 8, !tbaa !8
  call void @llvm.lifetime.start.p0(i64 8, ptr %14) #11
  %54 = load ptr, ptr %7, align 8, !tbaa !3
  %55 = load i64, ptr %13, align 8, !tbaa !8
  %56 = call ptr @_mi_heap_get_free_small_page(ptr noundef %54, i64 noundef %55) #10
  store ptr %56, ptr %14, align 8, !tbaa !12
  %57 = load ptr, ptr %14, align 8, !tbaa !12
  %58 = getelementptr inbounds nuw %struct.mi_page_s, ptr %57, i32 0, i32 6
  %59 = load ptr, ptr %58, align 8, !tbaa !14
  %60 = icmp ne ptr %59, null
  %61 = xor i1 %60, true
  %62 = xor i1 %61, true
  %63 = zext i1 %62 to i32
  %64 = sext i32 %63 to i64
  %65 = call i64 @llvm.expect.i64(i64 %64, i64 1)
  %66 = icmp ne i64 %65, 0
  br i1 %66, label %67, label %110

67:                                               ; preds = %49
  call void @llvm.lifetime.start.p0(i64 1, ptr %15) #11
  %68 = load ptr, ptr %14, align 8, !tbaa !12
  %69 = getelementptr inbounds nuw %struct.mi_page_s, ptr %68, i32 0, i32 6
  %70 = load ptr, ptr %69, align 8, !tbaa !14
  %71 = ptrtoint ptr %70 to i64
  %72 = load i64, ptr %10, align 8, !tbaa !8
  %73 = add i64 %71, %72
  %74 = load i64, ptr %12, align 8, !tbaa !8
  %75 = and i64 %73, %74
  %76 = icmp eq i64 %75, 0
  %77 = zext i1 %76 to i8
  store i8 %77, ptr %15, align 1, !tbaa !10
  %78 = load i8, ptr %15, align 1, !tbaa !10, !range !19, !noundef !20
  %79 = trunc i8 %78 to i1
  %80 = xor i1 %79, true
  %81 = xor i1 %80, true
  %82 = zext i1 %81 to i32
  %83 = sext i32 %82 to i64
  %84 = call i64 @llvm.expect.i64(i64 %83, i64 1)
  %85 = icmp ne i64 %84, 0
  br i1 %85, label %86, label %106

86:                                               ; preds = %67
  call void @llvm.lifetime.start.p0(i64 8, ptr %16) #11
  %87 = load i8, ptr %11, align 1, !tbaa !10, !range !19, !noundef !20
  %88 = trunc i8 %87 to i1
  br i1 %88, label %89, label %94

89:                                               ; preds = %86
  %90 = load ptr, ptr %7, align 8, !tbaa !3
  %91 = load ptr, ptr %14, align 8, !tbaa !12
  %92 = load i64, ptr %13, align 8, !tbaa !8
  %93 = call ptr @_mi_page_malloc_zeroed(ptr noundef %90, ptr noundef %91, i64 noundef %92) #10
  br label %99

94:                                               ; preds = %86
  %95 = load ptr, ptr %7, align 8, !tbaa !3
  %96 = load ptr, ptr %14, align 8, !tbaa !12
  %97 = load i64, ptr %13, align 8, !tbaa !8
  %98 = call ptr @_mi_page_malloc(ptr noundef %95, ptr noundef %96, i64 noundef %97) #10
  br label %99

99:                                               ; preds = %94, %89
  %100 = phi ptr [ %93, %89 ], [ %98, %94 ]
  store ptr %100, ptr %16, align 8, !tbaa !21
  %101 = load ptr, ptr %16, align 8, !tbaa !21
  %102 = icmp ne ptr %101, null
  br i1 %102, label %103, label %104

103:                                              ; preds = %99
  br label %104

104:                                              ; preds = %103, %99
  %105 = load ptr, ptr %16, align 8, !tbaa !21
  store ptr %105, ptr %6, align 8
  store i32 1, ptr %17, align 4
  call void @llvm.lifetime.end.p0(i64 8, ptr %16) #11
  br label %107

106:                                              ; preds = %67
  store i32 0, ptr %17, align 4
  br label %107

107:                                              ; preds = %106, %104
  call void @llvm.lifetime.end.p0(i64 1, ptr %15) #11
  %108 = load i32, ptr %17, align 4
  switch i32 %108, label %111 [
    i32 0, label %109
  ]

109:                                              ; preds = %107
  br label %110

110:                                              ; preds = %109, %49
  store i32 0, ptr %17, align 4
  br label %111

111:                                              ; preds = %110, %107
  call void @llvm.lifetime.end.p0(i64 8, ptr %14) #11
  call void @llvm.lifetime.end.p0(i64 8, ptr %13) #11
  call void @llvm.lifetime.end.p0(i64 8, ptr %12) #11
  %112 = load i32, ptr %17, align 4
  switch i32 %112, label %124 [
    i32 0, label %113
    i32 1, label %122
  ]

113:                                              ; preds = %111
  br label %114

114:                                              ; preds = %113, %41
  %115 = load ptr, ptr %7, align 8, !tbaa !3
  %116 = load i64, ptr %8, align 8, !tbaa !8
  %117 = load i64, ptr %9, align 8, !tbaa !8
  %118 = load i64, ptr %10, align 8, !tbaa !8
  %119 = load i8, ptr %11, align 1, !tbaa !10, !range !19, !noundef !20
  %120 = trunc i8 %119 to i1
  %121 = call ptr @mi_heap_malloc_zero_aligned_at_generic(ptr noundef %115, i64 noundef %116, i64 noundef %117, i64 noundef %118, i1 noundef zeroext %120) #10
  store ptr %121, ptr %6, align 8
  br label %122

122:                                              ; preds = %114, %111, %33
  %123 = load ptr, ptr %6, align 8
  ret ptr %123

124:                                              ; preds = %111
  unreachable
}

; Function Attrs: nounwind uwtable
define hidden noalias ptr @mi_heap_zalloc_aligned_at(ptr noundef %0, i64 noundef %1, i64 noundef %2, i64 noundef %3) #0 {
  %5 = alloca ptr, align 8
  %6 = alloca i64, align 8
  %7 = alloca i64, align 8
  %8 = alloca i64, align 8
  store ptr %0, ptr %5, align 8, !tbaa !3
  store i64 %1, ptr %6, align 8, !tbaa !8
  store i64 %2, ptr %7, align 8, !tbaa !8
  store i64 %3, ptr %8, align 8, !tbaa !8
  %9 = load ptr, ptr %5, align 8, !tbaa !3
  %10 = load i64, ptr %6, align 8, !tbaa !8
  %11 = load i64, ptr %7, align 8, !tbaa !8
  %12 = load i64, ptr %8, align 8, !tbaa !8
  %13 = call ptr @mi_heap_malloc_zero_aligned_at(ptr noundef %9, i64 noundef %10, i64 noundef %11, i64 noundef %12, i1 noundef zeroext true) #10
  ret ptr %13
}

; Function Attrs: nounwind uwtable
define hidden noalias ptr @mi_heap_zalloc_aligned(ptr noundef %0, i64 noundef %1, i64 noundef %2) #0 {
  %4 = alloca ptr, align 8
  %5 = alloca i64, align 8
  %6 = alloca i64, align 8
  store ptr %0, ptr %4, align 8, !tbaa !3
  store i64 %1, ptr %5, align 8, !tbaa !8
  store i64 %2, ptr %6, align 8, !tbaa !8
  %7 = load ptr, ptr %4, align 8, !tbaa !3
  %8 = load i64, ptr %5, align 8, !tbaa !8
  %9 = load i64, ptr %6, align 8, !tbaa !8
  %10 = call noalias ptr @mi_heap_zalloc_aligned_at(ptr noundef %7, i64 noundef %8, i64 noundef %9, i64 noundef 0) #10
  ret ptr %10
}